; Function Attrs: nofree norecurse nosync nounwind memory(argmem: readwrite) uwtable
define internal void @PredictorAdd11_C(ptr noundef readonly captures(none) %0, ptr noundef readonly captures(none) %1, i32 noundef %2, ptr noalias noundef captures(none) %3) #2 {
  %5 = icmp sgt i32 %2, 0
  br i1 %5, label %.lr.ph.preheader, label %._crit_edge

.lr.ph.preheader:                                 ; preds = %4
  %wide.trip.count = zext nneg i32 %2 to i64
  %scevgep = getelementptr i8, ptr %3, i64 -4
  %load_initial = load i32, ptr %scevgep, align 4
  br label %.lr.ph

.lr.ph:                                           ; preds = %.lr.ph.preheader, %.lr.ph
  %store_forwarded = phi i32 [ %load_initial, %.lr.ph.preheader ], [ %63, %.lr.ph ]
  %indvars.iv = phi i64 [ 0, %.lr.ph.preheader ], [ %indvars.iv.next, %.lr.ph ]
  %6 = getelementptr i32, ptr %3, i64 %indvars.iv
  %7 = getelementptr inbounds nuw i32, ptr %1, i64 %indvars.iv
  %8 = load i32, ptr %7, align 4, !tbaa !3
  %9 = getelementptr inbounds i8, ptr %7, i64 -4
  %10 = load i32, ptr %9, align 4, !tbaa !3
  %11 = lshr i32 %8, 24
  %12 = lshr i32 %store_forwarded, 24
  %13 = lshr i32 %10, 24
  %14 = sub nsw i32 %12, %13
  %15 = sub nsw i32 %11, %13
  %16 = tail call i32 @llvm.abs.i32(i32 %14, i1 true)
  %17 = tail call i32 @llvm.abs.i32(i32 %15, i1 true)
  %18 = lshr i32 %8, 16
  %19 = and i32 %18, 255
  %20 = lshr i32 %store_forwarded, 16
  %21 = and i32 %20, 255
  %22 = lshr i32 %10, 16
  %23 = and i32 %22, 255
  %24 = sub nsw i32 %21, %23
  %25 = sub nsw i32 %19, %23
  %26 = tail call i32 @llvm.abs.i32(i32 %24, i1 true)
  %27 = tail call i32 @llvm.abs.i32(i32 %25, i1 true)
  %28 = lshr i32 %8, 8
  %29 = and i32 %28, 255
  %30 = lshr i32 %store_forwarded, 8
  %31 = and i32 %30, 255
  %32 = lshr i32 %10, 8
  %33 = and i32 %32, 255
  %34 = sub nsw i32 %31, %33
  %35 = sub nsw i32 %29, %33
  %36 = tail call i32 @llvm.abs.i32(i32 %34, i1 true)
  %37 = tail call i32 @llvm.abs.i32(i32 %35, i1 true)
  %38 = and i32 %8, 255
  %39 = and i32 %store_forwarded, 255
  %40 = and i32 %10, 255
  %41 = sub nsw i32 %39, %40
  %42 = sub nsw i32 %38, %40
  %43 = tail call i32 @llvm.abs.i32(i32 %41, i1 true)
  %44 = tail call i32 @llvm.abs.i32(i32 %42, i1 true)
  %.neg13 = add nuw nsw i32 %43, %16
  %45 = add nuw nsw i32 %44, %17
  %46 = add nuw nsw i32 %.neg13, %36
  %47 = add nuw nsw i32 %45, %37
  %48 = add nuw nsw i32 %47, %27
  %49 = sub nsw i32 %46, %48
  %50 = add nsw i32 %49, %26
  %51 = icmp slt i32 %50, 1
  %52 = select i1 %51, i32 %8, i32 %store_forwarded
  %53 = getelementptr inbounds nuw i32, ptr %0, i64 %indvars.iv
  %54 = load i32, ptr %53, align 4, !tbaa !3
  %55 = and i32 %54, -16711936
  %56 = and i32 %52, -16711936
  %57 = add i32 %56, %55
  %58 = and i32 %54, 16711935
  %59 = and i32 %52, 16711935
  %60 = add nuw nsw i32 %59, %58
  %61 = and i32 %57, -16711936
  %62 = and i32 %60, 16711935
  %63 = or disjoint i32 %61, %62
  store i32 %63, ptr %6, align 4, !tbaa !3
  %indvars.iv.next = add nuw nsw i64 %indvars.iv, 1
  %exitcond.not = icmp eq i64 %indvars.iv.next, %wide.trip.count
  br i1 %exitcond.not, label %._crit_edge, label %.lr.ph, !llvm.loop !76

._crit_edge:                                      ; preds = %.lr.ph, %4
  ret void
}